target datalayout = "e-m:e-p270:32:32-p271:32:32-p272:64:64-i64:64-i128:128-f80:128-n8:16:32:64-S128"
target triple = "x86_64-unknown-linux-gnu"

%"struct.node::AssertionInfo" = type { ptr, ptr, ptr }
%"class.v8::Local" = type { %"class.v8::LocalBase" }
%"class.v8::LocalBase" = type { %"class.v8::IndirectHandleBase" }
%"class.v8::IndirectHandleBase" = type { ptr }
%"class.v8::Local.4" = type { %"class.v8::LocalBase.5" }
%"class.v8::LocalBase.5" = type { %"class.v8::IndirectHandleBase" }
%"class.v8::Local.2" = type { %"class.v8::LocalBase.3" }
%"class.v8::LocalBase.3" = type { %"class.v8::IndirectHandleBase" }
%"class.v8::Local.296" = type { %"class.v8::LocalBase.297" }
%"class.v8::LocalBase.297" = type { %"class.v8::IndirectHandleBase" }
%"class.v8::Local.300" = type { %"class.v8::LocalBase.301" }
%"class.v8::LocalBase.301" = type { %"class.v8::IndirectHandleBase" }
%"class.v8::Local.316" = type { %"class.v8::LocalBase.317" }
%"class.v8::LocalBase.317" = type { %"class.v8::IndirectHandleBase" }
%"class.v8::Maybe" = type { i8, i8 }
%"class.v8::Local.401" = type { %"class.v8::LocalBase.402" }
%"class.v8::LocalBase.402" = type { %"class.v8::IndirectHandleBase" }

@_ZZN4node6loaderL31createImportAttributesContainerEPNS_5RealmEPN2v87IsolateENS3_5LocalINS3_10FixedArrayEEEiE4args = internal constant %"struct.node::AssertionInfo" { ptr @.str.97, ptr @.str.98, ptr @.str.99 }, align 8

; Function Attrs: mustprogress nounwind uwtable
define internal ptr @_ZN4node6loaderL31createImportAttributesContainerEPNS_5RealmEPN2v87IsolateENS3_5LocalINS3_10FixedArrayEEEi(ptr noundef %realm, ptr noundef %isolate, ptr %raw_attributes.coerce, i32 noundef %elements_per_attribute) #4 {
entry:
  %this.addr.i.i169 = alloca ptr, align 8
  %this.addr.i170 = alloca ptr, align 8
  %slot.addr.i168 = alloca ptr, align 8
  %slot.addr.i167 = alloca ptr, align 8
  %slot.addr.i166 = alloca ptr, align 8
  %slot.addr.i165 = alloca ptr, align 8
  %this.addr.i.i160 = alloca ptr, align 8
  %this.addr.i161 = alloca ptr, align 8
  %this.addr.i.i155 = alloca ptr, align 8
  %this.addr.i156 = alloca ptr, align 8
  %this.addr.i.i150 = alloca ptr, align 8
  %this.addr.i151 = alloca ptr, align 8
  %this.addr.i.i146 = alloca ptr, align 8
  %this.addr.i147 = alloca ptr, align 8
  %this.addr.i143 = alloca ptr, align 8
  %other.addr.i144 = alloca ptr, align 8
  %this.addr.i140 = alloca ptr, align 8
  %other.addr.i141 = alloca ptr, align 8
  %this.addr.i.i134 = alloca ptr, align 8
  %other.addr.i.i135 = alloca ptr, align 8
  %retval.i136 = alloca %"class.v8::Local.4", align 8
  %that.i137 = alloca %"class.v8::Local.296", align 8
  %ref.tmp.i138 = alloca %"class.v8::LocalBase.5", align 8
  %this.addr.i131 = alloca ptr, align 8
  %other.addr.i132 = alloca ptr, align 8
  %this.addr.i129 = alloca ptr, align 8
  %other.addr.i = alloca ptr, align 8
  %this.addr.i.i124 = alloca ptr, align 8
  %other.addr.i.i125 = alloca ptr, align 8
  %retval.i126 = alloca %"class.v8::Local.2", align 8
  %that.i127 = alloca %"class.v8::Local.296", align 8
  %ref.tmp.i = alloca %"class.v8::LocalBase.3", align 8
  %retval.i120 = alloca %"class.v8::Local.2", align 8
  %this.addr.i121 = alloca ptr, align 8
  %agg.tmp.i122 = alloca %"class.v8::Local.296", align 8
  %this.addr.i.i.i = alloca ptr, align 8
  %location.addr.i.i.i = alloca ptr, align 8
  %this.addr.i10.i = alloca ptr, align 8
  %location.addr.i.i = alloca ptr, align 8
  %this.addr.i.i117 = alloca ptr, align 8
  %other.addr.i.i = alloca ptr, align 8
  %retval.i8.i = alloca %"class.v8::LocalBase.317", align 8
  %slot.addr.i9.i = alloca ptr, align 8
  %retval.i.i = alloca %"class.v8::Local.316", align 8
  %slot.addr.i.i = alloca ptr, align 8
  %ref.tmp.i.i = alloca %"class.v8::LocalBase.317", align 8
  %isolate.addr.i7.i = alloca ptr, align 8
  %index.addr.i.i = alloca i32, align 4
  %addr.i.i = alloca i64, align 8
  %isolate.addr.i.i = alloca ptr, align 8
  %retval.i118 = alloca %"class.v8::Local.316", align 8
  %isolate.addr.i = alloca ptr, align 8
  %slot.i = alloca ptr, align 8
  %slot.addr.i = alloca ptr, align 8
  %this.addr.i.i = alloca ptr, align 8
  %this.addr.i115 = alloca ptr, align 8
  %this.addr.i112 = alloca ptr, align 8
  %that.i109 = alloca %"class.v8::Local.316", align 8
  %this.addr.i110 = alloca ptr, align 8
  %this.addr.i106 = alloca ptr, align 8
  %this.addr.i103 = alloca ptr, align 8
  %this.addr.i100 = alloca ptr, align 8
  %this.addr.i97 = alloca ptr, align 8
  %that.i = alloca %"class.v8::Local.2", align 8
  %this.addr.i96 = alloca ptr, align 8
  %retval.i = alloca %"class.v8::Local.4", align 8
  %this.addr.i93 = alloca ptr, align 8
  %agg.tmp.i = alloca %"class.v8::Local.296", align 8
  %this.addr.i = alloca ptr, align 8
  %retval = alloca %"class.v8::Local", align 8
  %raw_attributes = alloca %"class.v8::Local.401", align 8
  %realm.addr = alloca ptr, align 8
  %isolate.addr = alloca ptr, align 8
  %elements_per_attribute.addr = alloca i32, align 4
  %agg.tmp = alloca %"class.v8::Local.4", align 8
  %agg.tmp8 = alloca %"class.v8::Local.316", align 8
  %i = alloca i32, align 4
  %ref.tmp = alloca %"class.v8::Maybe", align 1
  %agg.tmp27 = alloca %"class.v8::Local.300", align 8
  %agg.tmp32 = alloca %"class.v8::Local.4", align 8
  %agg.tmp33 = alloca %"class.v8::Local.2", align 8
  %ref.tmp34 = alloca %"class.v8::Local.296", align 8
  %agg.tmp36 = alloca %"class.v8::Local.300", align 8
  %agg.tmp57 = alloca %"class.v8::Local.4", align 8
  %ref.tmp58 = alloca %"class.v8::Local.296", align 8
  %agg.tmp60 = alloca %"class.v8::Local.300", align 8
  %coerce.dive = getelementptr inbounds %"class.v8::Local.401", ptr %raw_attributes, i32 0, i32 0
  %coerce.dive1 = getelementptr inbounds %"class.v8::LocalBase.402", ptr %coerce.dive, i32 0, i32 0
  %coerce.dive2 = getelementptr inbounds %"class.v8::IndirectHandleBase", ptr %coerce.dive1, i32 0, i32 0
  store ptr %raw_attributes.coerce, ptr %coerce.dive2, align 8
  store ptr %realm, ptr %realm.addr, align 8
  store ptr %isolate, ptr %isolate.addr, align 8
  store i32 %elements_per_attribute, ptr %elements_per_attribute.addr, align 4
  br label %do.body

do.body:                                          ; preds = %entry
  store ptr %raw_attributes, ptr %this.addr.i106, align 8
  %this1.i107 = load ptr, ptr %this.addr.i106, align 8
  store ptr %this1.i107, ptr %this.addr.i147, align 8
  %this1.i148 = load ptr, ptr %this.addr.i147, align 8
  store ptr %this1.i148, ptr %this.addr.i.i146, align 8
  %this1.i.i149 = load ptr, ptr %this.addr.i.i146, align 8
  %0 = load ptr, ptr %this1.i.i149, align 8
  store ptr %0, ptr %slot.addr.i168, align 8
  %1 = load ptr, ptr %slot.addr.i168, align 8
  %call3 = call noundef i32 @_ZNK2v810FixedArray6LengthEv(ptr noundef nonnull align 1 dereferenceable(1) %1)
  %2 = load i32, ptr %elements_per_attribute.addr, align 4
  %rem = srem i32 %call3, %2
  %cmp = icmp eq i32 %rem, 0
  %lnot = xor i1 %cmp, true
  %lnot4 = xor i1 %lnot, true
  %lnot5 = xor i1 %lnot4, true
  br i1 %lnot5, label %if.then, label %if.end

if.then:                                          ; preds = %do.body
  br label %do.body6

do.body6:                                         ; preds = %if.then
  call void @_ZN4node6AssertERKNS_13AssertionInfoE(ptr noundef nonnull align 8 dereferenceable(24) @_ZZN4node6loaderL31createImportAttributesContainerEPNS_5RealmEPN2v87IsolateENS3_5LocalINS3_10FixedArrayEEEiE4args)
  call void @abort() #16
  unreachable

do.end:                                           ; No predecessors!
  br label %if.end

if.end:                                           ; preds = %do.end, %do.body
  br label %do.end7

do.end7:                                          ; preds = %if.end
  %3 = load ptr, ptr %isolate.addr, align 8
  %4 = load ptr, ptr %isolate.addr, align 8
  store ptr %4, ptr %isolate.addr.i, align 8
  %5 = load ptr, ptr %isolate.addr.i, align 8
  store ptr %5, ptr %isolate.addr.i.i, align 8
  %6 = load ptr, ptr %isolate.addr.i, align 8
  store ptr %6, ptr %isolate.addr.i7.i, align 8
  store i32 6, ptr %index.addr.i.i, align 4
  %7 = load ptr, ptr %isolate.addr.i7.i, align 8
  %8 = ptrtoint ptr %7 to i64
  %add.i.i = add i64 %8, 576
  %9 = load i32, ptr %index.addr.i.i, align 4
  %mul.i.i = mul nsw i32 %9, 8
  %conv.i.i = sext i32 %mul.i.i to i64
  %add1.i.i = add i64 %add.i.i, %conv.i.i
  store i64 %add1.i.i, ptr %addr.i.i, align 8
  %10 = load i64, ptr %addr.i.i, align 8
  %11 = inttoptr i64 %10 to ptr
  store ptr %11, ptr %slot.i, align 8
  %12 = load ptr, ptr %slot.i, align 8
  store ptr %12, ptr %slot.addr.i.i, align 8
  %13 = load ptr, ptr %slot.addr.i.i, align 8
  store ptr %13, ptr %slot.addr.i9.i, align 8
  %14 = load ptr, ptr %slot.addr.i9.i, align 8
  store ptr %retval.i8.i, ptr %this.addr.i10.i, align 8
  store ptr %14, ptr %location.addr.i.i, align 8
  %this1.i11.i = load ptr, ptr %this.addr.i10.i, align 8
  %15 = load ptr, ptr %location.addr.i.i, align 8
  store ptr %this1.i11.i, ptr %this.addr.i.i.i, align 8
  store ptr %15, ptr %location.addr.i.i.i, align 8
  %this1.i.i.i = load ptr, ptr %this.addr.i.i.i, align 8
  %16 = load ptr, ptr %location.addr.i.i.i, align 8
  store ptr %16, ptr %this1.i.i.i, align 8
  %17 = load ptr, ptr %retval.i8.i, align 8
  store ptr %17, ptr %ref.tmp.i.i, align 8
  store ptr %retval.i.i, ptr %this.addr.i.i117, align 8
  store ptr %ref.tmp.i.i, ptr %other.addr.i.i, align 8
  %this1.i.i119 = load ptr, ptr %this.addr.i.i117, align 8
  %18 = load ptr, ptr %other.addr.i.i, align 8
  call void @llvm.memcpy.p0.p0.i64(ptr align 8 %this1.i.i119, ptr align 8 %18, i64 8, i1 false)
  %19 = load ptr, ptr %retval.i.i, align 8
  store ptr %19, ptr %retval.i118, align 8
  %20 = load ptr, ptr %retval.i118, align 8
  %coerce.dive10 = getelementptr inbounds %"class.v8::Local.316", ptr %agg.tmp8, i32 0, i32 0
  %coerce.dive11 = getelementptr inbounds %"class.v8::LocalBase.317", ptr %coerce.dive10, i32 0, i32 0
  %coerce.dive12 = getelementptr inbounds %"class.v8::IndirectHandleBase", ptr %coerce.dive11, i32 0, i32 0
  store ptr %20, ptr %coerce.dive12, align 8
  %coerce.dive13 = getelementptr inbounds %"class.v8::Local.316", ptr %agg.tmp8, i32 0, i32 0
  %coerce.dive14 = getelementptr inbounds %"class.v8::LocalBase.317", ptr %coerce.dive13, i32 0, i32 0
  %coerce.dive15 = getelementptr inbounds %"class.v8::IndirectHandleBase", ptr %coerce.dive14, i32 0, i32 0
  %21 = load ptr, ptr %coerce.dive15, align 8
  store ptr %21, ptr %that.i109, align 8
  store ptr %agg.tmp, ptr %this.addr.i110, align 8
  %this3.i111 = load ptr, ptr %this.addr.i110, align 8
  store ptr %this3.i111, ptr %this.addr.i143, align 8
  store ptr %that.i109, ptr %other.addr.i144, align 8
  %this1.i145 = load ptr, ptr %this.addr.i143, align 8
  %22 = load ptr, ptr %other.addr.i144, align 8
  call void @llvm.memcpy.p0.p0.i64(ptr align 8 %this1.i145, ptr align 8 %22, i64 8, i1 false)
  %coerce.dive16 = getelementptr inbounds %"class.v8::Local.4", ptr %agg.tmp, i32 0, i32 0
  %coerce.dive17 = getelementptr inbounds %"class.v8::LocalBase.5", ptr %coerce.dive16, i32 0, i32 0
  %coerce.dive18 = getelementptr inbounds %"class.v8::IndirectHandleBase", ptr %coerce.dive17, i32 0, i32 0
  %23 = load ptr, ptr %coerce.dive18, align 8
  %call19 = call ptr @_ZN2v86Object3NewEPNS_7IsolateENS_5LocalINS_5ValueEEEPNS3_INS_4NameEEEPS5_m(ptr noundef %3, ptr %23, ptr noundef null, ptr noundef null, i64 noundef 0)
  %coerce.dive20 = getelementptr inbounds %"class.v8::Local", ptr %retval, i32 0, i32 0
  %coerce.dive21 = getelementptr inbounds %"class.v8::LocalBase", ptr %coerce.dive20, i32 0, i32 0
  %coerce.dive22 = getelementptr inbounds %"class.v8::IndirectHandleBase", ptr %coerce.dive21, i32 0, i32 0
  store ptr %call19, ptr %coerce.dive22, align 8
  store i32 0, ptr %i, align 4
  br label %for.cond

for.cond:                                         ; preds = %for.inc, %do.end7
  %24 = load i32, ptr %i, align 4
  store ptr %raw_attributes, ptr %this.addr.i103, align 8
  %this1.i104 = load ptr, ptr %this.addr.i103, align 8
  store ptr %this1.i104, ptr %this.addr.i151, align 8
  %this1.i152 = load ptr, ptr %this.addr.i151, align 8
  store ptr %this1.i152, ptr %this.addr.i.i150, align 8
  %this1.i.i153 = load ptr, ptr %this.addr.i.i150, align 8
  %25 = load ptr, ptr %this1.i.i153, align 8
  store ptr %25, ptr %slot.addr.i167, align 8
  %26 = load ptr, ptr %slot.addr.i167, align 8
  %call24 = call noundef i32 @_ZNK2v810FixedArray6LengthEv(ptr noundef nonnull align 1 dereferenceable(1) %26)
  %cmp25 = icmp slt i32 %24, %call24
  br i1 %cmp25, label %for.body, label %for.end

for.body:                                         ; preds = %for.cond
  store ptr %retval, ptr %this.addr.i, align 8
  %this1.i = load ptr, ptr %this.addr.i, align 8
  store ptr %this1.i, ptr %this.addr.i115, align 8
  %this1.i116 = load ptr, ptr %this.addr.i115, align 8
  store ptr %this1.i116, ptr %this.addr.i.i, align 8
  %this1.i.i = load ptr, ptr %this.addr.i.i, align 8
  %27 = load ptr, ptr %this1.i.i, align 8
  store ptr %27, ptr %slot.addr.i, align 8
  %28 = load ptr, ptr %slot.addr.i, align 8
  %29 = load ptr, ptr %realm.addr, align 8
  %vtable = load ptr, ptr %29, align 8
  %vfn = getelementptr inbounds ptr, ptr %vtable, i64 8
  %30 = load ptr, ptr %vfn, align 8
  %call28 = call ptr %30(ptr noundef nonnull align 8 dereferenceable(872) %29)
  %coerce.dive29 = getelementptr inbounds %"class.v8::Local.300", ptr %agg.tmp27, i32 0, i32 0
  %coerce.dive30 = getelementptr inbounds %"class.v8::LocalBase.301", ptr %coerce.dive29, i32 0, i32 0
  %coerce.dive31 = getelementptr inbounds %"class.v8::IndirectHandleBase", ptr %coerce.dive30, i32 0, i32 0
  store ptr %call28, ptr %coerce.dive31, align 8
  store ptr %raw_attributes, ptr %this.addr.i100, align 8
  %this1.i101 = load ptr, ptr %this.addr.i100, align 8
  store ptr %this1.i101, ptr %this.addr.i156, align 8
  %this1.i157 = load ptr, ptr %this.addr.i156, align 8
  store ptr %this1.i157, ptr %this.addr.i.i155, align 8
  %this1.i.i158 = load ptr, ptr %this.addr.i.i155, align 8
  %31 = load ptr, ptr %this1.i.i158, align 8
  store ptr %31, ptr %slot.addr.i166, align 8
  %32 = load ptr, ptr %slot.addr.i166, align 8
  %33 = load ptr, ptr %realm.addr, align 8
  %vtable37 = load ptr, ptr %33, align 8
  %vfn38 = getelementptr inbounds ptr, ptr %vtable37, i64 8
  %34 = load ptr, ptr %vfn38, align 8
  %call39 = call ptr %34(ptr noundef nonnull align 8 dereferenceable(872) %33)
  %coerce.dive40 = getelementptr inbounds %"class.v8::Local.300", ptr %agg.tmp36, i32 0, i32 0
  %coerce.dive41 = getelementptr inbounds %"class.v8::LocalBase.301", ptr %coerce.dive40, i32 0, i32 0
  %coerce.dive42 = getelementptr inbounds %"class.v8::IndirectHandleBase", ptr %coerce.dive41, i32 0, i32 0
  store ptr %call39, ptr %coerce.dive42, align 8
  %35 = load i32, ptr %i, align 4
  %coerce.dive43 = getelementptr inbounds %"class.v8::Local.300", ptr %agg.tmp36, i32 0, i32 0
  %coerce.dive44 = getelementptr inbounds %"class.v8::LocalBase.301", ptr %coerce.dive43, i32 0, i32 0
  %coerce.dive45 = getelementptr inbounds %"class.v8::IndirectHandleBase", ptr %coerce.dive44, i32 0, i32 0
  %36 = load ptr, ptr %coerce.dive45, align 8
  %call46 = call ptr @_ZNK2v810FixedArray3GetENS_5LocalINS_7ContextEEEi(ptr noundef nonnull align 1 dereferenceable(1) %32, ptr %36, i32 noundef %35)
  %coerce.dive47 = getelementptr inbounds %"class.v8::Local.296", ptr %ref.tmp34, i32 0, i32 0
  %coerce.dive48 = getelementptr inbounds %"class.v8::LocalBase.297", ptr %coerce.dive47, i32 0, i32 0
  %coerce.dive49 = getelementptr inbounds %"class.v8::IndirectHandleBase", ptr %coerce.dive48, i32 0, i32 0
  store ptr %call46, ptr %coerce.dive49, align 8
  store ptr %ref.tmp34, ptr %this.addr.i121, align 8
  %this1.i123 = load ptr, ptr %this.addr.i121, align 8
  call void @llvm.memcpy.p0.p0.i64(ptr align 8 %agg.tmp.i122, ptr align 8 %this1.i123, i64 8, i1 false)
  %37 = load ptr, ptr %agg.tmp.i122, align 8
  store ptr %37, ptr %that.i127, align 8
  store ptr %ref.tmp.i, ptr %this.addr.i129, align 8
  store ptr %that.i127, ptr %other.addr.i, align 8
  %this1.i130 = load ptr, ptr %this.addr.i129, align 8
  %38 = load ptr, ptr %other.addr.i, align 8
  call void @llvm.memcpy.p0.p0.i64(ptr align 8 %this1.i130, ptr align 8 %38, i64 8, i1 false)
  store ptr %retval.i126, ptr %this.addr.i.i124, align 8
  store ptr %ref.tmp.i, ptr %other.addr.i.i125, align 8
  %this1.i.i128 = load ptr, ptr %this.addr.i.i124, align 8
  %39 = load ptr, ptr %other.addr.i.i125, align 8
  call void @llvm.memcpy.p0.p0.i64(ptr align 8 %this1.i.i128, ptr align 8 %39, i64 8, i1 false)
  %40 = load ptr, ptr %retval.i126, align 8
  store ptr %40, ptr %retval.i120, align 8
  %41 = load ptr, ptr %retval.i120, align 8
  %coerce.dive51 = getelementptr inbounds %"class.v8::Local.2", ptr %agg.tmp33, i32 0, i32 0
  %coerce.dive52 = getelementptr inbounds %"class.v8::LocalBase.3", ptr %coerce.dive51, i32 0, i32 0
  %coerce.dive53 = getelementptr inbounds %"class.v8::IndirectHandleBase", ptr %coerce.dive52, i32 0, i32 0
  store ptr %41, ptr %coerce.dive53, align 8
  %coerce.dive54 = getelementptr inbounds %"class.v8::Local.2", ptr %agg.tmp33, i32 0, i32 0
  %coerce.dive55 = getelementptr inbounds %"class.v8::LocalBase.3", ptr %coerce.dive54, i32 0, i32 0
  %coerce.dive56 = getelementptr inbounds %"class.v8::IndirectHandleBase", ptr %coerce.dive55, i32 0, i32 0
  %42 = load ptr, ptr %coerce.dive56, align 8
  store ptr %42, ptr %that.i, align 8
  store ptr %agg.tmp32, ptr %this.addr.i96, align 8
  %this3.i = load ptr, ptr %this.addr.i96, align 8
  store ptr %this3.i, ptr %this.addr.i131, align 8
  store ptr %that.i, ptr %other.addr.i132, align 8
  %this1.i133 = load ptr, ptr %this.addr.i131, align 8
  %43 = load ptr, ptr %other.addr.i132, align 8
  call void @llvm.memcpy.p0.p0.i64(ptr align 8 %this1.i133, ptr align 8 %43, i64 8, i1 false)
  store ptr %raw_attributes, ptr %this.addr.i97, align 8
  %this1.i98 = load ptr, ptr %this.addr.i97, align 8
  store ptr %this1.i98, ptr %this.addr.i161, align 8
  %this1.i162 = load ptr, ptr %this.addr.i161, align 8
  store ptr %this1.i162, ptr %this.addr.i.i160, align 8
  %this1.i.i163 = load ptr, ptr %this.addr.i.i160, align 8
  %44 = load ptr, ptr %this1.i.i163, align 8
  store ptr %44, ptr %slot.addr.i165, align 8
  %45 = load ptr, ptr %slot.addr.i165, align 8
  %46 = load ptr, ptr %realm.addr, align 8
  %vtable61 = load ptr, ptr %46, align 8
  %vfn62 = getelementptr inbounds ptr, ptr %vtable61, i64 8
  %47 = load ptr, ptr %vfn62, align 8
  %call63 = call ptr %47(ptr noundef nonnull align 8 dereferenceable(872) %46)
  %coerce.dive64 = getelementptr inbounds %"class.v8::Local.300", ptr %agg.tmp60, i32 0, i32 0
  %coerce.dive65 = getelementptr inbounds %"class.v8::LocalBase.301", ptr %coerce.dive64, i32 0, i32 0
  %coerce.dive66 = getelementptr inbounds %"class.v8::IndirectHandleBase", ptr %coerce.dive65, i32 0, i32 0
  store ptr %call63, ptr %coerce.dive66, align 8
  %48 = load i32, ptr %i, align 4
  %add = add nsw i32 %48, 1
  %coerce.dive67 = getelementptr inbounds %"class.v8::Local.300", ptr %agg.tmp60, i32 0, i32 0
  %coerce.dive68 = getelementptr inbounds %"class.v8::LocalBase.301", ptr %coerce.dive67, i32 0, i32 0
  %coerce.dive69 = getelementptr inbounds %"class.v8::IndirectHandleBase", ptr %coerce.dive68, i32 0, i32 0
  %49 = load ptr, ptr %coerce.dive69, align 8
  %call70 = call ptr @_ZNK2v810FixedArray3GetENS_5LocalINS_7ContextEEEi(ptr noundef nonnull align 1 dereferenceable(1) %45, ptr %49, i32 noundef %add)
  %coerce.dive71 = getelementptr inbounds %"class.v8::Local.296", ptr %ref.tmp58, i32 0, i32 0
  %coerce.dive72 = getelementptr inbounds %"class.v8::LocalBase.297", ptr %coerce.dive71, i32 0, i32 0
  %coerce.dive73 = getelementptr inbounds %"class.v8::IndirectHandleBase", ptr %coerce.dive72, i32 0, i32 0
  store ptr %call70, ptr %coerce.dive73, align 8
  store ptr %ref.tmp58, ptr %this.addr.i93, align 8
  %this1.i94 = load ptr, ptr %this.addr.i93, align 8
  call void @llvm.memcpy.p0.p0.i64(ptr align 8 %agg.tmp.i, ptr align 8 %this1.i94, i64 8, i1 false)
  %50 = load ptr, ptr %agg.tmp.i, align 8
  store ptr %50, ptr %that.i137, align 8
  store ptr %ref.tmp.i138, ptr %this.addr.i140, align 8
  store ptr %that.i137, ptr %other.addr.i141, align 8
  %this1.i142 = load ptr, ptr %this.addr.i140, align 8
  %51 = load ptr, ptr %other.addr.i141, align 8
  call void @llvm.memcpy.p0.p0.i64(ptr align 8 %this1.i142, ptr align 8 %51, i64 8, i1 false)
  store ptr %retval.i136, ptr %this.addr.i.i134, align 8
  store ptr %ref.tmp.i138, ptr %other.addr.i.i135, align 8
  %this1.i.i139 = load ptr, ptr %this.addr.i.i134, align 8
  %52 = load ptr, ptr %other.addr.i.i135, align 8
  call void @llvm.memcpy.p0.p0.i64(ptr align 8 %this1.i.i139, ptr align 8 %52, i64 8, i1 false)
  %53 = load ptr, ptr %retval.i136, align 8
  store ptr %53, ptr %retval.i, align 8
  %54 = load ptr, ptr %retval.i, align 8
  %coerce.dive75 = getelementptr inbounds %"class.v8::Local.4", ptr %agg.tmp57, i32 0, i32 0
  %coerce.dive76 = getelementptr inbounds %"class.v8::LocalBase.5", ptr %coerce.dive75, i32 0, i32 0
  %coerce.dive77 = getelementptr inbounds %"class.v8::IndirectHandleBase", ptr %coerce.dive76, i32 0, i32 0
  store ptr %54, ptr %coerce.dive77, align 8
  %coerce.dive78 = getelementptr inbounds %"class.v8::Local.300", ptr %agg.tmp27, i32 0, i32 0
  %coerce.dive79 = getelementptr inbounds %"class.v8::LocalBase.301", ptr %coerce.dive78, i32 0, i32 0
  %coerce.dive80 = getelementptr inbounds %"class.v8::IndirectHandleBase", ptr %coerce.dive79, i32 0, i32 0
  %55 = load ptr, ptr %coerce.dive80, align 8
  %coerce.dive81 = getelementptr inbounds %"class.v8::Local.4", ptr %agg.tmp32, i32 0, i32 0
  %coerce.dive82 = getelementptr inbounds %"class.v8::LocalBase.5", ptr %coerce.dive81, i32 0, i32 0
  %coerce.dive83 = getelementptr inbounds %"class.v8::IndirectHandleBase", ptr %coerce.dive82, i32 0, i32 0
  %56 = load ptr, ptr %coerce.dive83, align 8
  %coerce.dive84 = getelementptr inbounds %"class.v8::Local.4", ptr %agg.tmp57, i32 0, i32 0
  %coerce.dive85 = getelementptr inbounds %"class.v8::LocalBase.5", ptr %coerce.dive84, i32 0, i32 0
  %coerce.dive86 = getelementptr inbounds %"class.v8::IndirectHandleBase", ptr %coerce.dive85, i32 0, i32 0
  %57 = load ptr, ptr %coerce.dive86, align 8
  %call87 = call i16 @_ZN2v86Object3SetENS_5LocalINS_7ContextEEENS1_INS_5ValueEEES5_(ptr noundef nonnull align 1 dereferenceable(1) %28, ptr %55, ptr %56, ptr %57)
  store i16 %call87, ptr %ref.tmp, align 1
  store ptr %ref.tmp, ptr %this.addr.i112, align 8
  %this1.i113 = load ptr, ptr %this.addr.i112, align 8
  store ptr %this1.i113, ptr %this.addr.i170, align 8
  %this1.i171 = load ptr, ptr %this.addr.i170, align 8
  store ptr %this1.i171, ptr %this.addr.i.i169, align 8
  %this1.i.i172 = load ptr, ptr %this.addr.i.i169, align 8
  %58 = load i8, ptr %this1.i.i172, align 1
  %tobool.i.i = trunc i8 %58 to i1
  %lnot3.i = xor i1 %tobool.i.i, true
  br i1 %lnot3.i, label %if.then.i, label %_ZNKR2v85MaybeIbE8FromJustEv.exit

if.then.i:                                        ; preds = %for.body
  call void @_ZN2v812api_internal17FromJustIsNothingEv() #3
  br label %_ZNKR2v85MaybeIbE8FromJustEv.exit

_ZNKR2v85MaybeIbE8FromJustEv.exit:                ; preds = %if.then.i, %for.body
  br label %for.inc

for.inc:                                          ; preds = %_ZNKR2v85MaybeIbE8FromJustEv.exit
  %59 = load i32, ptr %elements_per_attribute.addr, align 4
  %60 = load i32, ptr %i, align 4
  %add89 = add nsw i32 %60, %59
  store i32 %add89, ptr %i, align 4
  br label %for.cond, !llvm.loop !10

for.end:                                          ; preds = %for.cond
  %coerce.dive90 = getelementptr inbounds %"class.v8::Local", ptr %retval, i32 0, i32 0
  %coerce.dive91 = getelementptr inbounds %"class.v8::LocalBase", ptr %coerce.dive90, i32 0, i32 0
  %coerce.dive92 = getelementptr inbounds %"class.v8::IndirectHandleBase", ptr %coerce.dive91, i32 0, i32 0
  %61 = load ptr, ptr %coerce.dive92, align 8
  ret ptr %61
}