; Function Attrs: mustprogress nounwind uwtable
define internal fastcc ptr @_ZN4node6loaderL31createImportAttributesContainerEPNS_5RealmEPN2v87IsolateENS3_5LocalINS3_10FixedArrayEEEi(ptr noundef %realm, ptr noundef %isolate, ptr nonnull %raw_attributes.coerce, i32 noundef %elements_per_attribute) unnamed_addr #3 {
entry:
  %call3 = tail call noundef i32 @_ZNK2v810FixedArray6LengthEv(ptr noundef nonnull align 1 dereferenceable(1) %raw_attributes.coerce) #19
  %rem = srem i32 %call3, %elements_per_attribute
  %cmp.not = icmp eq i32 %rem, 0
  br i1 %cmp.not, label %do.end7, label %do.body6

do.body6:                                         ; preds = %entry
  tail call void @_ZN4node6AssertERKNS_13AssertionInfoE(ptr noundef nonnull align 8 dereferenceable(24) @_ZZN4node6loaderL31createImportAttributesContainerEPNS_5RealmEPN2v87IsolateENS3_5LocalINS3_10FixedArrayEEEiE4args) #19
  tail call void @abort() #22
  unreachable

do.end7:                                          ; preds = %entry
  %0 = ptrtoint ptr %isolate to i64
  %add1.i.i = add i64 %0, 624
  %1 = inttoptr i64 %add1.i.i to ptr
  %call19 = tail call ptr @_ZN2v86Object3NewEPNS_7IsolateENS_5LocalINS_5ValueEEEPNS3_INS_4NameEEEPS5_m(ptr noundef %isolate, ptr %1, ptr noundef null, ptr noundef null, i64 noundef 0) #19
  %call2413 = tail call noundef i32 @_ZNK2v810FixedArray6LengthEv(ptr noundef nonnull align 1 dereferenceable(1) %raw_attributes.coerce) #19
  %cmp2514 = icmp sgt i32 %call2413, 0
  br i1 %cmp2514, label %for.body, label %for.end

for.body:                                         ; preds = %do.end7, %for.inc
  %i.015 = phi i32 [ %add89, %for.inc ], [ 0, %do.end7 ]
  %vtable = load ptr, ptr %realm, align 8
  %vfn = getelementptr inbounds i8, ptr %vtable, i64 64
  %2 = load ptr, ptr %vfn, align 8
  %call28 = tail call ptr %2(ptr noundef nonnull align 8 dereferenceable(872) %realm) #19
  %vtable37 = load ptr, ptr %realm, align 8
  %vfn38 = getelementptr inbounds i8, ptr %vtable37, i64 64
  %3 = load ptr, ptr %vfn38, align 8
  %call39 = tail call ptr %3(ptr noundef nonnull align 8 dereferenceable(872) %realm) #19
  %call46 = tail call ptr @_ZNK2v810FixedArray3GetENS_5LocalINS_7ContextEEEi(ptr noundef nonnull align 1 dereferenceable(1) %raw_attributes.coerce, ptr %call39, i32 noundef %i.015) #19
  %vtable61 = load ptr, ptr %realm, align 8
  %vfn62 = getelementptr inbounds i8, ptr %vtable61, i64 64
  %4 = load ptr, ptr %vfn62, align 8
  %call63 = tail call ptr %4(ptr noundef nonnull align 8 dereferenceable(872) %realm) #19
  %add = add nsw i32 %i.015, 1
  %call70 = tail call ptr @_ZNK2v810FixedArray3GetENS_5LocalINS_7ContextEEEi(ptr noundef nonnull align 1 dereferenceable(1) %raw_attributes.coerce, ptr %call63, i32 noundef %add) #19
  %call87 = tail call i16 @_ZN2v86Object3SetENS_5LocalINS_7ContextEEENS1_INS_5ValueEEES5_(ptr noundef nonnull align 1 dereferenceable(1) %call19, ptr %call28, ptr %call46, ptr %call70) #19
  %5 = and i16 %call87, 1
  %tobool.i.i.not = icmp eq i16 %5, 0
  br i1 %tobool.i.i.not, label %if.then.i, label %for.inc

if.then.i:                                        ; preds = %for.body
  tail call void @_ZN2v812api_internal17FromJustIsNothingEv() #19
  br label %for.inc

for.inc:                                          ; preds = %for.body, %if.then.i
  %add89 = add nsw i32 %i.015, %elements_per_attribute
  %call24 = tail call noundef i32 @_ZNK2v810FixedArray6LengthEv(ptr noundef nonnull align 1 dereferenceable(1) %raw_attributes.coerce) #19
  %cmp25 = icmp slt i32 %add89, %call24
  br i1 %cmp25, label %for.body, label %for.end, !llvm.loop !17

for.end:                                          ; preds = %for.inc, %do.end7
  ret ptr %call19
}